target datalayout = "e-m:e-p270:32:32-p271:32:32-p272:64:64-i64:64-i128:128-f80:128-n8:16:32:64-S128"
target triple = "x86_64-pc-linux-gnu"

%struct.object_id = type { [32 x i8], i32 }
%struct.kh_oid_map = type { i32, i32, i32, i32, ptr, ptr, ptr }

; Function Attrs: inlinehint nounwind uwtable
define internal i32 @oideq(ptr noundef %0, ptr noundef %1) #2 {
  %3 = alloca ptr, align 8
  %4 = alloca ptr, align 8
  store ptr %0, ptr %3, align 8, !tbaa !4
  store ptr %1, ptr %4, align 8, !tbaa !4
  %5 = load ptr, ptr %3, align 8, !tbaa !4
  %6 = getelementptr inbounds nuw %struct.object_id, ptr %5, i32 0, i32 0
  %7 = getelementptr inbounds [32 x i8], ptr %6, i64 0, i64 0
  %8 = load ptr, ptr %4, align 8, !tbaa !4
  %9 = getelementptr inbounds nuw %struct.object_id, ptr %8, i32 0, i32 0
  %10 = getelementptr inbounds [32 x i8], ptr %9, i64 0, i64 0
  %11 = call i32 @memcmp(ptr noundef %7, ptr noundef %10, i64 noundef 32) #12
  %12 = icmp ne i32 %11, 0
  %13 = xor i1 %12, true
  %14 = zext i1 %13 to i32
  ret i32 %14
}

; Function Attrs: inlinehint nounwind uwtable
define internal i32 @oidhash(ptr noundef %0) #2 {
  %2 = alloca ptr, align 8
  %3 = alloca i32, align 4
  store ptr %0, ptr %2, align 8, !tbaa !4
  call void @llvm.lifetime.start.p0(i64 4, ptr %3) #10
  %4 = load ptr, ptr %2, align 8, !tbaa !4
  %5 = getelementptr inbounds nuw %struct.object_id, ptr %4, i32 0, i32 0
  %6 = getelementptr inbounds [32 x i8], ptr %5, i64 0, i64 0
  call void @llvm.memcpy.p0.p0.i64(ptr align 4 %3, ptr align 4 %6, i64 4, i1 false)
  %7 = load i32, ptr %3, align 4, !tbaa !13
  call void @llvm.lifetime.end.p0(i64 4, ptr %3) #10
  ret i32 %7
}

; Function Attrs: inlinehint nounwind uwtable
define internal i32 @oideq_by_value(ptr noundef byval(%struct.object_id) align 8 %0, ptr noundef byval(%struct.object_id) align 8 %1) #2 {
  %3 = call i32 @oideq(ptr noundef %0, ptr noundef %1)
  ret i32 %3
}

; Function Attrs: inlinehint nounwind uwtable
define internal i32 @oidhash_by_value(ptr noundef byval(%struct.object_id) align 8 %0) #2 {
  %2 = call i32 @oidhash(ptr noundef %0)
  ret i32 %2
}

; Function Attrs: inlinehint nounwind uwtable
define internal i32 @kh_put_oid_map(ptr noundef %0, ptr noundef byval(%struct.object_id) align 8 %1, ptr noundef %2) #2 {
  %4 = alloca ptr, align 8
  %5 = alloca ptr, align 8
  %6 = alloca i32, align 4
  %7 = alloca i32, align 4
  %8 = alloca i32, align 4
  %9 = alloca i32, align 4
  %10 = alloca i32, align 4
  %11 = alloca i32, align 4
  %12 = alloca i32, align 4
  %13 = alloca %struct.object_id, align 8
  store ptr %0, ptr %4, align 8, !tbaa !9
  store ptr %2, ptr %5, align 8, !tbaa !122
  call void @llvm.lifetime.start.p0(i64 4, ptr %6) #10
  %14 = load ptr, ptr %4, align 8, !tbaa !9
  %15 = getelementptr inbounds nuw %struct.kh_oid_map, ptr %14, i32 0, i32 2
  %16 = load i32, ptr %15, align 8, !tbaa !123
  %17 = load ptr, ptr %4, align 8, !tbaa !9
  %18 = getelementptr inbounds nuw %struct.kh_oid_map, ptr %17, i32 0, i32 3
  %19 = load i32, ptr %18, align 4, !tbaa !124
  %20 = icmp uge i32 %16, %19
  br i1 %20, label %21, label %43

21:                                               ; preds = %3
  %22 = load ptr, ptr %4, align 8, !tbaa !9
  %23 = getelementptr inbounds nuw %struct.kh_oid_map, ptr %22, i32 0, i32 0
  %24 = load i32, ptr %23, align 8, !tbaa !15
  %25 = load ptr, ptr %4, align 8, !tbaa !9
  %26 = getelementptr inbounds nuw %struct.kh_oid_map, ptr %25, i32 0, i32 1
  %27 = load i32, ptr %26, align 4, !tbaa !125
  %28 = shl i32 %27, 1
  %29 = icmp ugt i32 %24, %28
  br i1 %29, label %30, label %36

30:                                               ; preds = %21
  %31 = load ptr, ptr %4, align 8, !tbaa !9
  %32 = load ptr, ptr %4, align 8, !tbaa !9
  %33 = getelementptr inbounds nuw %struct.kh_oid_map, ptr %32, i32 0, i32 0
  %34 = load i32, ptr %33, align 8, !tbaa !15
  %35 = sub i32 %34, 1
  call void @kh_resize_oid_map(ptr noundef %31, i32 noundef %35)
  br label %42

36:                                               ; preds = %21
  %37 = load ptr, ptr %4, align 8, !tbaa !9
  %38 = load ptr, ptr %4, align 8, !tbaa !9
  %39 = getelementptr inbounds nuw %struct.kh_oid_map, ptr %38, i32 0, i32 0
  %40 = load i32, ptr %39, align 8, !tbaa !15
  %41 = add i32 %40, 1
  call void @kh_resize_oid_map(ptr noundef %37, i32 noundef %41)
  br label %42

42:                                               ; preds = %36, %30
  br label %43

43:                                               ; preds = %42, %3
  call void @llvm.lifetime.start.p0(i64 4, ptr %7) #10
  call void @llvm.lifetime.start.p0(i64 4, ptr %8) #10
  call void @llvm.lifetime.start.p0(i64 4, ptr %9) #10
  call void @llvm.lifetime.start.p0(i64 4, ptr %10) #10
  call void @llvm.lifetime.start.p0(i64 4, ptr %11) #10
  %44 = load ptr, ptr %4, align 8, !tbaa !9
  %45 = getelementptr inbounds nuw %struct.kh_oid_map, ptr %44, i32 0, i32 0
  %46 = load i32, ptr %45, align 8, !tbaa !15
  %47 = sub i32 %46, 1
  store i32 %47, ptr %11, align 4, !tbaa !13
  call void @llvm.lifetime.start.p0(i64 4, ptr %12) #10
  store i32 0, ptr %12, align 4, !tbaa !13
  %48 = load ptr, ptr %4, align 8, !tbaa !9
  %49 = getelementptr inbounds nuw %struct.kh_oid_map, ptr %48, i32 0, i32 0
  %50 = load i32, ptr %49, align 8, !tbaa !15
  store i32 %50, ptr %9, align 4, !tbaa !13
  store i32 %50, ptr %6, align 4, !tbaa !13
  %51 = call i32 @oidhash_by_value(ptr noundef byval(%struct.object_id) align 8 %1)
  store i32 %51, ptr %7, align 4, !tbaa !13
  %52 = load i32, ptr %7, align 4, !tbaa !13
  %53 = load i32, ptr %11, align 4, !tbaa !13
  %54 = and i32 %52, %53
  store i32 %54, ptr %8, align 4, !tbaa !13
  %55 = load ptr, ptr %4, align 8, !tbaa !9
  %56 = getelementptr inbounds nuw %struct.kh_oid_map, ptr %55, i32 0, i32 4
  %57 = load ptr, ptr %56, align 8, !tbaa !20
  %58 = load i32, ptr %8, align 4, !tbaa !13
  %59 = lshr i32 %58, 4
  %60 = zext i32 %59 to i64
  %61 = getelementptr inbounds nuw i32, ptr %57, i64 %60
  %62 = load i32, ptr %61, align 4, !tbaa !13
  %63 = load i32, ptr %8, align 4, !tbaa !13
  %64 = and i32 %63, 15
  %65 = shl i32 %64, 1
  %66 = lshr i32 %62, %65
  %67 = and i32 %66, 2
  %68 = icmp ne i32 %67, 0
  br i1 %68, label %69, label %71

69:                                               ; preds = %43
  %70 = load i32, ptr %8, align 4, !tbaa !13
  store i32 %70, ptr %6, align 4, !tbaa !13
  br label %180

71:                                               ; preds = %43
  %72 = load i32, ptr %8, align 4, !tbaa !13
  store i32 %72, ptr %10, align 4, !tbaa !13
  br label %73

73:                                               ; preds = %146, %71
  %74 = load ptr, ptr %4, align 8, !tbaa !9
  %75 = getelementptr inbounds nuw %struct.kh_oid_map, ptr %74, i32 0, i32 4
  %76 = load ptr, ptr %75, align 8, !tbaa !20
  %77 = load i32, ptr %8, align 4, !tbaa !13
  %78 = lshr i32 %77, 4
  %79 = zext i32 %78 to i64
  %80 = getelementptr inbounds nuw i32, ptr %76, i64 %79
  %81 = load i32, ptr %80, align 4, !tbaa !13
  %82 = load i32, ptr %8, align 4, !tbaa !13
  %83 = and i32 %82, 15
  %84 = shl i32 %83, 1
  %85 = lshr i32 %81, %84
  %86 = and i32 %85, 2
  %87 = icmp ne i32 %86, 0
  br i1 %87, label %115, label %88

88:                                               ; preds = %73
  %89 = load ptr, ptr %4, align 8, !tbaa !9
  %90 = getelementptr inbounds nuw %struct.kh_oid_map, ptr %89, i32 0, i32 4
  %91 = load ptr, ptr %90, align 8, !tbaa !20
  %92 = load i32, ptr %8, align 4, !tbaa !13
  %93 = lshr i32 %92, 4
  %94 = zext i32 %93 to i64
  %95 = getelementptr inbounds nuw i32, ptr %91, i64 %94
  %96 = load i32, ptr %95, align 4, !tbaa !13
  %97 = load i32, ptr %8, align 4, !tbaa !13
  %98 = and i32 %97, 15
  %99 = shl i32 %98, 1
  %100 = lshr i32 %96, %99
  %101 = and i32 %100, 1
  %102 = icmp ne i32 %101, 0
  br i1 %102, label %113, label %103

103:                                              ; preds = %88
  %104 = load ptr, ptr %4, align 8, !tbaa !9
  %105 = getelementptr inbounds nuw %struct.kh_oid_map, ptr %104, i32 0, i32 5
  %106 = load ptr, ptr %105, align 8, !tbaa !21
  %107 = load i32, ptr %8, align 4, !tbaa !13
  %108 = zext i32 %107 to i64
  %109 = getelementptr inbounds nuw %struct.object_id, ptr %106, i64 %108
  call void @llvm.lifetime.start.p0(i64 36, ptr %13) #10
  call void @llvm.memcpy.p0.p0.i64(ptr align 8 %13, ptr align 4 %109, i64 36, i1 false), !tbaa.struct !11
  %110 = call i32 @oideq_by_value(ptr noundef byval(%struct.object_id) align 8 %13, ptr noundef byval(%struct.object_id) align 8 %1)
  call void @llvm.lifetime.end.p0(i64 36, ptr %13) #10
  %111 = icmp ne i32 %110, 0
  %112 = xor i1 %111, true
  br label %113

113:                                              ; preds = %103, %88
  %114 = phi i1 [ true, %88 ], [ %112, %103 ]
  br label %115

115:                                              ; preds = %113, %73
  %116 = phi i1 [ false, %73 ], [ %114, %113 ]
  br i1 %116, label %117, label %147

117:                                              ; preds = %115
  %118 = load ptr, ptr %4, align 8, !tbaa !9
  %119 = getelementptr inbounds nuw %struct.kh_oid_map, ptr %118, i32 0, i32 4
  %120 = load ptr, ptr %119, align 8, !tbaa !20
  %121 = load i32, ptr %8, align 4, !tbaa !13
  %122 = lshr i32 %121, 4
  %123 = zext i32 %122 to i64
  %124 = getelementptr inbounds nuw i32, ptr %120, i64 %123
  %125 = load i32, ptr %124, align 4, !tbaa !13
  %126 = load i32, ptr %8, align 4, !tbaa !13
  %127 = and i32 %126, 15
  %128 = shl i32 %127, 1
  %129 = lshr i32 %125, %128
  %130 = and i32 %129, 1
  %131 = icmp ne i32 %130, 0
  br i1 %131, label %132, label %134

132:                                              ; preds = %117
  %133 = load i32, ptr %8, align 4, !tbaa !13
  store i32 %133, ptr %9, align 4, !tbaa !13
  br label %134

134:                                              ; preds = %132, %117
  %135 = load i32, ptr %8, align 4, !tbaa !13
  %136 = load i32, ptr %12, align 4, !tbaa !13
  %137 = add i32 %136, 1
  store i32 %137, ptr %12, align 4, !tbaa !13
  %138 = add i32 %135, %137
  %139 = load i32, ptr %11, align 4, !tbaa !13
  %140 = and i32 %138, %139
  store i32 %140, ptr %8, align 4, !tbaa !13
  %141 = load i32, ptr %8, align 4, !tbaa !13
  %142 = load i32, ptr %10, align 4, !tbaa !13
  %143 = icmp eq i32 %141, %142
  br i1 %143, label %144, label %146

144:                                              ; preds = %134
  %145 = load i32, ptr %9, align 4, !tbaa !13
  store i32 %145, ptr %6, align 4, !tbaa !13
  br label %147

146:                                              ; preds = %134
  br label %73, !llvm.loop !126

147:                                              ; preds = %144, %115
  %148 = load i32, ptr %6, align 4, !tbaa !13
  %149 = load ptr, ptr %4, align 8, !tbaa !9
  %150 = getelementptr inbounds nuw %struct.kh_oid_map, ptr %149, i32 0, i32 0
  %151 = load i32, ptr %150, align 8, !tbaa !15
  %152 = icmp eq i32 %148, %151
  br i1 %152, label %153, label %179

153:                                              ; preds = %147
  %154 = load ptr, ptr %4, align 8, !tbaa !9
  %155 = getelementptr inbounds nuw %struct.kh_oid_map, ptr %154, i32 0, i32 4
  %156 = load ptr, ptr %155, align 8, !tbaa !20
  %157 = load i32, ptr %8, align 4, !tbaa !13
  %158 = lshr i32 %157, 4
  %159 = zext i32 %158 to i64
  %160 = getelementptr inbounds nuw i32, ptr %156, i64 %159
  %161 = load i32, ptr %160, align 4, !tbaa !13
  %162 = load i32, ptr %8, align 4, !tbaa !13
  %163 = and i32 %162, 15
  %164 = shl i32 %163, 1
  %165 = lshr i32 %161, %164
  %166 = and i32 %165, 2
  %167 = icmp ne i32 %166, 0
  br i1 %167, label %168, label %176

168:                                              ; preds = %153
  %169 = load i32, ptr %9, align 4, !tbaa !13
  %170 = load ptr, ptr %4, align 8, !tbaa !9
  %171 = getelementptr inbounds nuw %struct.kh_oid_map, ptr %170, i32 0, i32 0
  %172 = load i32, ptr %171, align 8, !tbaa !15
  %173 = icmp ne i32 %169, %172
  br i1 %173, label %174, label %176

174:                                              ; preds = %168
  %175 = load i32, ptr %9, align 4, !tbaa !13
  store i32 %175, ptr %6, align 4, !tbaa !13
  br label %178

176:                                              ; preds = %168, %153
  %177 = load i32, ptr %8, align 4, !tbaa !13
  store i32 %177, ptr %6, align 4, !tbaa !13
  br label %178

178:                                              ; preds = %176, %174
  br label %179

179:                                              ; preds = %178, %147
  br label %180

180:                                              ; preds = %179, %69
  call void @llvm.lifetime.end.p0(i64 4, ptr %12) #10
  call void @llvm.lifetime.end.p0(i64 4, ptr %11) #10
  call void @llvm.lifetime.end.p0(i64 4, ptr %10) #10
  call void @llvm.lifetime.end.p0(i64 4, ptr %9) #10
  call void @llvm.lifetime.end.p0(i64 4, ptr %8) #10
  call void @llvm.lifetime.end.p0(i64 4, ptr %7) #10
  %181 = load ptr, ptr %4, align 8, !tbaa !9
  %182 = getelementptr inbounds nuw %struct.kh_oid_map, ptr %181, i32 0, i32 4
  %183 = load ptr, ptr %182, align 8, !tbaa !20
  %184 = load i32, ptr %6, align 4, !tbaa !13
  %185 = lshr i32 %184, 4
  %186 = zext i32 %185 to i64
  %187 = getelementptr inbounds nuw i32, ptr %183, i64 %186
  %188 = load i32, ptr %187, align 4, !tbaa !13
  %189 = load i32, ptr %6, align 4, !tbaa !13
  %190 = and i32 %189, 15
  %191 = shl i32 %190, 1
  %192 = lshr i32 %188, %191
  %193 = and i32 %192, 2
  %194 = icmp ne i32 %193, 0
  br i1 %194, label %195, label %228

195:                                              ; preds = %180
  %196 = load ptr, ptr %4, align 8, !tbaa !9
  %197 = getelementptr inbounds nuw %struct.kh_oid_map, ptr %196, i32 0, i32 5
  %198 = load ptr, ptr %197, align 8, !tbaa !21
  %199 = load i32, ptr %6, align 4, !tbaa !13
  %200 = zext i32 %199 to i64
  %201 = getelementptr inbounds nuw %struct.object_id, ptr %198, i64 %200
  call void @llvm.memcpy.p0.p0.i64(ptr align 4 %201, ptr align 8 %1, i64 36, i1 false), !tbaa.struct !11
  %202 = load i32, ptr %6, align 4, !tbaa !13
  %203 = and i32 %202, 15
  %204 = shl i32 %203, 1
  %205 = zext i32 %204 to i64
  %206 = shl i64 3, %205
  %207 = xor i64 %206, -1
  %208 = load ptr, ptr %4, align 8, !tbaa !9
  %209 = getelementptr inbounds nuw %struct.kh_oid_map, ptr %208, i32 0, i32 4
  %210 = load ptr, ptr %209, align 8, !tbaa !20
  %211 = load i32, ptr %6, align 4, !tbaa !13
  %212 = lshr i32 %211, 4
  %213 = zext i32 %212 to i64
  %214 = getelementptr inbounds nuw i32, ptr %210, i64 %213
  %215 = load i32, ptr %214, align 4, !tbaa !13
  %216 = zext i32 %215 to i64
  %217 = and i64 %216, %207
  %218 = trunc i64 %217 to i32
  store i32 %218, ptr %214, align 4, !tbaa !13
  %219 = load ptr, ptr %4, align 8, !tbaa !9
  %220 = getelementptr inbounds nuw %struct.kh_oid_map, ptr %219, i32 0, i32 1
  %221 = load i32, ptr %220, align 4, !tbaa !125
  %222 = add i32 %221, 1
  store i32 %222, ptr %220, align 4, !tbaa !125
  %223 = load ptr, ptr %4, align 8, !tbaa !9
  %224 = getelementptr inbounds nuw %struct.kh_oid_map, ptr %223, i32 0, i32 2
  %225 = load i32, ptr %224, align 8, !tbaa !123
  %226 = add i32 %225, 1
  store i32 %226, ptr %224, align 8, !tbaa !123
  %227 = load ptr, ptr %5, align 8, !tbaa !122
  store i32 1, ptr %227, align 4, !tbaa !13
  br label %275

228:                                              ; preds = %180
  %229 = load ptr, ptr %4, align 8, !tbaa !9
  %230 = getelementptr inbounds nuw %struct.kh_oid_map, ptr %229, i32 0, i32 4
  %231 = load ptr, ptr %230, align 8, !tbaa !20
  %232 = load i32, ptr %6, align 4, !tbaa !13
  %233 = lshr i32 %232, 4
  %234 = zext i32 %233 to i64
  %235 = getelementptr inbounds nuw i32, ptr %231, i64 %234
  %236 = load i32, ptr %235, align 4, !tbaa !13
  %237 = load i32, ptr %6, align 4, !tbaa !13
  %238 = and i32 %237, 15
  %239 = shl i32 %238, 1
  %240 = lshr i32 %236, %239
  %241 = and i32 %240, 1
  %242 = icmp ne i32 %241, 0
  br i1 %242, label %243, label %272

243:                                              ; preds = %228
  %244 = load ptr, ptr %4, align 8, !tbaa !9
  %245 = getelementptr inbounds nuw %struct.kh_oid_map, ptr %244, i32 0, i32 5
  %246 = load ptr, ptr %245, align 8, !tbaa !21
  %247 = load i32, ptr %6, align 4, !tbaa !13
  %248 = zext i32 %247 to i64
  %249 = getelementptr inbounds nuw %struct.object_id, ptr %246, i64 %248
  call void @llvm.memcpy.p0.p0.i64(ptr align 4 %249, ptr align 8 %1, i64 36, i1 false), !tbaa.struct !11
  %250 = load i32, ptr %6, align 4, !tbaa !13
  %251 = and i32 %250, 15
  %252 = shl i32 %251, 1
  %253 = zext i32 %252 to i64
  %254 = shl i64 3, %253
  %255 = xor i64 %254, -1
  %256 = load ptr, ptr %4, align 8, !tbaa !9
  %257 = getelementptr inbounds nuw %struct.kh_oid_map, ptr %256, i32 0, i32 4
  %258 = load ptr, ptr %257, align 8, !tbaa !20
  %259 = load i32, ptr %6, align 4, !tbaa !13
  %260 = lshr i32 %259, 4
  %261 = zext i32 %260 to i64
  %262 = getelementptr inbounds nuw i32, ptr %258, i64 %261
  %263 = load i32, ptr %262, align 4, !tbaa !13
  %264 = zext i32 %263 to i64
  %265 = and i64 %264, %255
  %266 = trunc i64 %265 to i32
  store i32 %266, ptr %262, align 4, !tbaa !13
  %267 = load ptr, ptr %4, align 8, !tbaa !9
  %268 = getelementptr inbounds nuw %struct.kh_oid_map, ptr %267, i32 0, i32 1
  %269 = load i32, ptr %268, align 4, !tbaa !125
  %270 = add i32 %269, 1
  store i32 %270, ptr %268, align 4, !tbaa !125
  %271 = load ptr, ptr %5, align 8, !tbaa !122
  store i32 2, ptr %271, align 4, !tbaa !13
  br label %274

272:                                              ; preds = %228
  %273 = load ptr, ptr %5, align 8, !tbaa !122
  store i32 0, ptr %273, align 4, !tbaa !13
  br label %274

274:                                              ; preds = %272, %243
  br label %275

275:                                              ; preds = %274, %195
  %276 = load i32, ptr %6, align 4, !tbaa !13
  call void @llvm.lifetime.end.p0(i64 4, ptr %6) #10
  ret i32 %276
}