; Function Attrs: inlinehint nounwind uwtable
define internal fastcc i32 @kh_put_oid_map(ptr noundef captures(none) %0, ptr noundef readonly byval(%struct.object_id) align 8 captures(none) %1, ptr noundef nonnull writeonly captures(none) %2) unnamed_addr #6 {
  %4 = alloca %struct.object_id, align 8
  %5 = getelementptr inbounds nuw i8, ptr %0, i64 8
  %6 = load i32, ptr %5, align 8, !tbaa !49
  %7 = getelementptr inbounds nuw i8, ptr %0, i64 12
  %8 = load i32, ptr %7, align 4, !tbaa !50
  %.not = icmp ult i32 %6, %8
  br i1 %.not, label %15, label %.sink.split

.sink.split:                                      ; preds = %3
  %9 = load i32, ptr %0, align 8, !tbaa !9
  %10 = getelementptr inbounds nuw i8, ptr %0, i64 4
  %11 = load i32, ptr %10, align 4, !tbaa !51
  %12 = shl i32 %11, 1
  %13 = icmp ugt i32 %9, %12
  %. = select i1 %13, i32 -1, i32 1
  %14 = add i32 %9, %.
  tail call fastcc void @kh_resize_oid_map(ptr noundef nonnull %0, i32 noundef %14)
  br label %15

15:                                               ; preds = %.sink.split, %3
  %16 = load i32, ptr %0, align 8, !tbaa !9
  %17 = add i32 %16, -1
  %.val = load i32, ptr %1, align 8
  %18 = and i32 %.val, %17
  %19 = getelementptr inbounds nuw i8, ptr %0, i64 16
  %20 = load ptr, ptr %19, align 8, !tbaa !14
  %21 = lshr i32 %18, 4
  %22 = zext nneg i32 %21 to i64
  %23 = getelementptr inbounds nuw i32, ptr %20, i64 %22
  %24 = load i32, ptr %23, align 4, !tbaa !15
  %25 = shl i32 %18, 1
  %26 = and i32 %25, 30
  %27 = shl nuw i32 2, %26
  %28 = and i32 %27, %24
  %.not78 = icmp eq i32 %28, 0
  br i1 %.not78, label %.preheader, label %53

.preheader:                                       ; preds = %15
  %29 = getelementptr inbounds nuw i8, ptr %0, i64 24
  br label %30

30:                                               ; preds = %.preheader, %.critedge2
  %.071 = phi i32 [ %spec.select, %.critedge2 ], [ %16, %.preheader ]
  %.069 = phi i32 [ %49, %.critedge2 ], [ %18, %.preheader ]
  %.0 = phi i32 [ %47, %.critedge2 ], [ 0, %.preheader ]
  %31 = lshr i32 %.069, 4
  %32 = zext nneg i32 %31 to i64
  %33 = getelementptr inbounds nuw i32, ptr %20, i64 %32
  %34 = load i32, ptr %33, align 4, !tbaa !15
  %35 = shl i32 %.069, 1
  %36 = and i32 %35, 30
  %37 = lshr i32 %34, %36
  %38 = and i32 %37, 2
  %.not79 = icmp eq i32 %38, 0
  br i1 %.not79, label %39, label %.critedge.thread.loopexit

39:                                               ; preds = %30
  %40 = and i32 %37, 1
  %.not80 = icmp eq i32 %40, 0
  br i1 %.not80, label %41, label %.critedge2

41:                                               ; preds = %39
  %42 = load ptr, ptr %29, align 8, !tbaa !16
  %43 = zext i32 %.069 to i64
  %44 = getelementptr inbounds nuw %struct.object_id, ptr %42, i64 %43
  call void @llvm.lifetime.start.p0(i64 36, ptr nonnull %4) #17
  call void @llvm.memcpy.p0.p0.i64(ptr noundef nonnull align 8 dereferenceable(36) %4, ptr noundef nonnull align 4 dereferenceable(36) %44, i64 36, i1 false), !tbaa.struct !17
  %bcmp.i.i = call i32 @bcmp(ptr noundef nonnull readonly align 8 dereferenceable(32) %4, ptr noundef nonnull readonly align 8 dereferenceable(32) %1, i64 32)
  %.not.i.i.not = icmp eq i32 %bcmp.i.i, 0
  call void @llvm.lifetime.end.p0(i64 36, ptr nonnull %4) #17
  br i1 %.not.i.i.not, label %.critedge.thread.loopexit, label %.critedge2

.critedge2:                                       ; preds = %39, %41
  %45 = shl nuw nsw i32 1, %36
  %46 = and i32 %45, %34
  %.not82 = icmp eq i32 %46, 0
  %spec.select = select i1 %.not82, i32 %.071, i32 %.069
  %47 = add i32 %.0, 1
  %48 = add i32 %47, %.069
  %49 = and i32 %48, %17
  %50 = icmp eq i32 %49, %18
  br i1 %50, label %.critedge, label %30, !llvm.loop !52

.critedge:                                        ; preds = %.critedge2
  %51 = icmp eq i32 %spec.select, %16
  br i1 %51, label %.critedge.thread, label %53

.critedge.thread.loopexit:                        ; preds = %30, %41
  %.pre = shl nuw i32 2, %36
  %.pre101 = and i32 %.pre, %34
  %52 = icmp eq i32 %.pre101, 0
  br label %.critedge.thread

.critedge.thread:                                 ; preds = %.critedge, %.critedge.thread.loopexit
  %.pre-phi102 = phi i1 [ %52, %.critedge.thread.loopexit ], [ true, %.critedge ]
  %.17092 = phi i32 [ %.069, %.critedge.thread.loopexit ], [ %18, %.critedge ]
  %.17291 = phi i32 [ %.071, %.critedge.thread.loopexit ], [ %16, %.critedge ]
  %.not84 = icmp eq i32 %.17291, %16
  %or.cond = select i1 %.pre-phi102, i1 true, i1 %.not84
  %spec.select87 = select i1 %or.cond, i32 %.17092, i32 %.17291
  br label %53

53:                                               ; preds = %.critedge.thread, %15, %.critedge
  %.068 = phi i32 [ %spec.select, %.critedge ], [ %18, %15 ], [ %spec.select87, %.critedge.thread ]
  %54 = lshr i32 %.068, 4
  %55 = zext nneg i32 %54 to i64
  %56 = getelementptr inbounds nuw i32, ptr %20, i64 %55
  %57 = load i32, ptr %56, align 4, !tbaa !15
  %58 = shl i32 %.068, 1
  %59 = and i32 %58, 30
  %60 = lshr i32 %57, %59
  %61 = and i32 %60, 2
  %.not85 = icmp eq i32 %61, 0
  br i1 %.not85, label %78, label %62

62:                                               ; preds = %53
  %63 = getelementptr inbounds nuw i8, ptr %0, i64 24
  %64 = load ptr, ptr %63, align 8, !tbaa !16
  %65 = zext i32 %.068 to i64
  %66 = getelementptr inbounds nuw %struct.object_id, ptr %64, i64 %65
  call void @llvm.memcpy.p0.p0.i64(ptr noundef nonnull align 4 dereferenceable(36) %66, ptr noundef nonnull align 8 dereferenceable(36) %1, i64 36, i1 false), !tbaa.struct !17
  %67 = shl nuw i32 3, %59
  %68 = xor i32 %67, -1
  %69 = load ptr, ptr %19, align 8, !tbaa !14
  %70 = getelementptr inbounds nuw i32, ptr %69, i64 %55
  %71 = load i32, ptr %70, align 4, !tbaa !15
  %72 = and i32 %71, %68
  store i32 %72, ptr %70, align 4, !tbaa !15
  %73 = getelementptr inbounds nuw i8, ptr %0, i64 4
  %74 = load i32, ptr %73, align 4, !tbaa !51
  %75 = add i32 %74, 1
  store i32 %75, ptr %73, align 4, !tbaa !51
  %76 = load i32, ptr %5, align 8, !tbaa !49
  %77 = add i32 %76, 1
  store i32 %77, ptr %5, align 8, !tbaa !49
  br label %94

78:                                               ; preds = %53
  %79 = and i32 %60, 1
  %.not86 = icmp eq i32 %79, 0
  br i1 %.not86, label %94, label %80

80:                                               ; preds = %78
  %81 = getelementptr inbounds nuw i8, ptr %0, i64 24
  %82 = load ptr, ptr %81, align 8, !tbaa !16
  %83 = zext i32 %.068 to i64
  %84 = getelementptr inbounds nuw %struct.object_id, ptr %82, i64 %83
  call void @llvm.memcpy.p0.p0.i64(ptr noundef nonnull align 4 dereferenceable(36) %84, ptr noundef nonnull align 8 dereferenceable(36) %1, i64 36, i1 false), !tbaa.struct !17
  %85 = shl nuw i32 3, %59
  %86 = xor i32 %85, -1
  %87 = load ptr, ptr %19, align 8, !tbaa !14
  %88 = getelementptr inbounds nuw i32, ptr %87, i64 %55
  %89 = load i32, ptr %88, align 4, !tbaa !15
  %90 = and i32 %89, %86
  store i32 %90, ptr %88, align 4, !tbaa !15
  %91 = getelementptr inbounds nuw i8, ptr %0, i64 4
  %92 = load i32, ptr %91, align 4, !tbaa !51
  %93 = add i32 %92, 1
  store i32 %93, ptr %91, align 4, !tbaa !51
  br label %94

94:                                               ; preds = %78, %80, %62
  %.sink = phi i32 [ 2, %80 ], [ 1, %62 ], [ 0, %78 ]
  store i32 %.sink, ptr %2, align 4, !tbaa !15
  ret i32 %.068
}